; ModuleID = 'source-C-CXX/44/839.c'
source_filename = "source-C-CXX/44/839.c"
target datalayout = "e-m:e-p270:32:32-p271:32:32-p272:64:64-i64:64-f80:128-n8:16:32:64-S128"
target triple = "x86_64-pc-linux-gnu"

@.str = private unnamed_addr constant [3 x i8] c"%s\00", align 1
@.str.3 = private unnamed_addr constant [4 x i8] c"%d\0A\00", align 1

; Function Attrs: nofree nounwind sspstrong uwtable
define dso_local i32 @main() local_unnamed_addr #0 {
  %1 = alloca [50 x i8], align 16
  %2 = alloca [50 x i8], align 16
  %3 = getelementptr inbounds [50 x i8], [50 x i8]* %1, i64 0, i64 0
  call void @llvm.lifetime.start.p0i8(i64 50, i8* nonnull %3) #4
  %4 = getelementptr inbounds [50 x i8], [50 x i8]* %2, i64 0, i64 0
  call void @llvm.lifetime.start.p0i8(i64 50, i8* nonnull %4) #4
  %5 = call i32 (i8*, ...) @__isoc99_scanf(i8* getelementptr inbounds ([3 x i8], [3 x i8]* @.str, i64 0, i64 0), i8* nonnull %4)
  %6 = call i32 @putchar(i32 32)
  %7 = call i32 (i8*, ...) @__isoc99_scanf(i8* getelementptr inbounds ([3 x i8], [3 x i8]* @.str, i64 0, i64 0), i8* nonnull %3)
  %8 = call i32 @putchar(i32 10)
  %9 = load i8, i8* %3, align 16, !tbaa !5
  %10 = icmp eq i8 %9, 0
  br i1 %10, label %54, label %11

11:                                               ; preds = %0, %37
  %12 = phi i8 [ %48, %37 ], [ %9, %0 ]
  %13 = phi i32 [ %45, %37 ], [ 0, %0 ]
  %14 = sext i32 %13 to i64
  br label %15

15:                                               ; preds = %11, %26
  %16 = phi i64 [ %14, %11 ], [ %27, %26 ]
  %17 = phi i64 [ 0, %11 ], [ %29, %26 ]
  %18 = phi i8 [ %12, %11 ], [ %32, %26 ]
  %19 = phi i32 [ 0, %11 ], [ %30, %26 ]
  %20 = phi i32 [ %13, %11 ], [ %28, %26 ]
  %21 = getelementptr inbounds [50 x i8], [50 x i8]* %2, i64 0, i64 %17
  %22 = load i8, i8* %21, align 1, !tbaa !5
  %23 = icmp ne i8 %22, 0
  %24 = icmp eq i8 %18, %22
  %25 = select i1 %23, i1 %24, i1 false
  br i1 %25, label %26, label %34

26:                                               ; preds = %15
  %27 = add i64 %16, 1
  %28 = add nsw i32 %20, 1
  %29 = add nuw i64 %17, 1
  %30 = add nuw nsw i32 %19, 1
  %31 = getelementptr inbounds [50 x i8], [50 x i8]* %1, i64 0, i64 %27
  %32 = load i8, i8* %31, align 1, !tbaa !5
  %33 = icmp eq i8 %32, 0
  br i1 %33, label %37, label %15, !llvm.loop !8

34:                                               ; preds = %15
  %35 = trunc i64 %17 to i32
  %36 = trunc i64 %16 to i32
  br label %37

37:                                               ; preds = %26, %34
  %38 = phi i32 [ %36, %34 ], [ %28, %26 ]
  %39 = phi i32 [ %35, %34 ], [ %30, %26 ]
  %40 = zext i32 %39 to i64
  %41 = getelementptr inbounds [50 x i8], [50 x i8]* %2, i64 0, i64 %40
  %42 = load i8, i8* %41, align 1, !tbaa !5
  %43 = icmp eq i8 %42, 0
  %44 = add nsw i32 %13, 1
  %45 = select i1 %43, i32 %38, i32 %44
  %46 = sext i32 %45 to i64
  %47 = getelementptr inbounds [50 x i8], [50 x i8]* %1, i64 0, i64 %46
  %48 = load i8, i8* %47, align 1, !tbaa !5
  %49 = icmp eq i8 %48, 0
  %50 = or i1 %43, %49
  br i1 %50, label %51, label %11, !llvm.loop !10

51:                                               ; preds = %37
  br i1 %43, label %52, label %54

52:                                               ; preds = %51
  %53 = call i32 (i8*, ...) @printf(i8* nonnull dereferenceable(1) getelementptr inbounds ([4 x i8], [4 x i8]* @.str.3, i64 0, i64 0), i32 %13)
  br label %54

54:                                               ; preds = %0, %52, %51
  call void @llvm.lifetime.end.p0i8(i64 50, i8* nonnull %4) #4
  call void @llvm.lifetime.end.p0i8(i64 50, i8* nonnull %3) #4
  ret i32 0
}

; Function Attrs: argmemonly mustprogress nofree nosync nounwind willreturn
declare void @llvm.lifetime.start.p0i8(i64 immarg, i8* nocapture) #1

; Function Attrs: nofree nounwind
declare noundef i32 @__isoc99_scanf(i8* nocapture noundef readonly, ...) local_unnamed_addr #2

; Function Attrs: nofree nounwind
declare noundef i32 @printf(i8* nocapture noundef readonly, ...) local_unnamed_addr #2

; Function Attrs: argmemonly mustprogress nofree nosync nounwind willreturn
declare void @llvm.lifetime.end.p0i8(i64 immarg, i8* nocapture) #1

; Function Attrs: nofree nounwind
declare noundef i32 @putchar(i32 noundef) local_unnamed_addr #3


!llvm.module.flags = !{!0, !1, !2, !3}
!llvm.ident = !{!4}

!0 = !{i32 1, !"wchar_size", i32 4}
!1 = !{i32 7, !"PIC Level", i32 2}
!2 = !{i32 7, !"PIE Level", i32 2}
!3 = !{i32 7, !"uwtable", i32 1}
!4 = !{!"clang version 13.0.0"}
!5 = !{!6, !6, i64 0}
!6 = !{!"omnipotent char", !7, i64 0}
!7 = !{!"Simple C/C++ TBAA"}
!8 = distinct !{!8, !9}
!9 = !{!"llvm.loop.mustprogress"}
!10 = distinct !{!10, !9}
